; ModuleID = '34/2745.c'
source_filename = "34/2745.c"
target datalayout = "e-m:e-p270:32:32-p271:32:32-p272:64:64-i64:64-f80:128-n8:16:32:64-S128"
target triple = "x86_64-pc-linux-gnu"

@.str = private unnamed_addr constant [4 x i8] c"End\00", align 1
@.str.1 = private unnamed_addr constant [11 x i8] c"%d*3+1=%d\0A\00", align 1
@.str.2 = private unnamed_addr constant [9 x i8] c"%d/2=%d\0A\00", align 1
@.str.3 = private unnamed_addr constant [3 x i8] c"%d\00", align 1

; Function Attrs: noinline nounwind uwtable
define dso_local i32 @suan(i32 %0) #0 {
  %2 = alloca i32, align 4
  %3 = alloca i32, align 4
  %4 = alloca i32, align 4
  store i32 %0, i32* %3, align 4
  %5 = load i32, i32* %3, align 4
  %6 = icmp eq i32 %5, 1
  br i1 %6, label %7, label %9

7:                                                ; preds = %1
  %8 = call i32 (i8*, ...) @printf(i8* getelementptr inbounds ([4 x i8], [4 x i8]* @.str, i64 0, i64 0))
  store i32 0, i32* %2, align 4
  br label %36

9:                                                ; preds = %1
  %10 = load i32, i32* %3, align 4
  %11 = srem i32 %10, 2
  %12 = icmp eq i32 %11, 1
  br i1 %12, label %13, label %23

13:                                               ; preds = %9
  %14 = load i32, i32* %3, align 4
  store i32 %14, i32* %4, align 4
  %15 = load i32, i32* %3, align 4
  %16 = mul nsw i32 %15, 3
  %17 = add nsw i32 %16, 1
  store i32 %17, i32* %3, align 4
  %18 = load i32, i32* %4, align 4
  %19 = load i32, i32* %3, align 4
  %20 = call i32 (i8*, ...) @printf(i8* getelementptr inbounds ([11 x i8], [11 x i8]* @.str.1, i64 0, i64 0), i32 %18, i32 %19)
  %21 = load i32, i32* %3, align 4
  %22 = call i32 @suan(i32 %21)
  store i32 %22, i32* %2, align 4
  br label %36

23:                                               ; preds = %9
  %24 = load i32, i32* %3, align 4
  %25 = srem i32 %24, 2
  %26 = icmp eq i32 %25, 0
  br i1 %26, label %27, label %36

27:                                               ; preds = %23
  %28 = load i32, i32* %3, align 4
  store i32 %28, i32* %4, align 4
  %29 = load i32, i32* %3, align 4
  %30 = sdiv i32 %29, 2
  store i32 %30, i32* %3, align 4
  %31 = load i32, i32* %4, align 4
  %32 = load i32, i32* %3, align 4
  %33 = call i32 (i8*, ...) @printf(i8* getelementptr inbounds ([9 x i8], [9 x i8]* @.str.2, i64 0, i64 0), i32 %31, i32 %32)
  %34 = load i32, i32* %3, align 4
  %35 = call i32 @suan(i32 %34)
  store i32 %35, i32* %2, align 4
  br label %36

36:                                               ; preds = %7, %13, %27, %23
  %37 = load i32, i32* %2, align 4
  ret i32 %37
}

declare dso_local i32 @printf(i8*, ...) #1

; Function Attrs: noinline nounwind uwtable
define dso_local void @main() #0 {
  %1 = alloca i32, align 4
  %2 = call i32 (i8*, ...) @__isoc99_scanf(i8* getelementptr inbounds ([3 x i8], [3 x i8]* @.str.3, i64 0, i64 0), i32* %1)
  %3 = load i32, i32* %1, align 4
  %4 = call i32 @suan(i32 %3)
  ret void
}

declare dso_local i32 @__isoc99_scanf(i8*, ...) #1


!llvm.module.flags = !{!0}
!llvm.ident = !{!1}

!0 = !{i32 1, !"wchar_size", i32 4}
!1 = !{!"clang version 10.0.0-4ubuntu1 "}
